; Function Attrs: mustprogress uwtable
define void @_ZNK5faiss9IndexFlat23compute_distance_subsetElPKflPfPKl(ptr noundef nonnull readonly align 8 captures(none) dereferenceable(72) %0, i64 noundef %1, ptr noundef %2, i64 noundef %3, ptr noundef %4, ptr noundef %5) local_unnamed_addr #2 align 2 personality ptr @__gxx_personality_v0 {
  %7 = alloca %"class.std::__cxx11::basic_string", align 8
  %8 = alloca %"class.std::allocator.0", align 1
  %9 = getelementptr inbounds nuw i8, ptr %0, i64 28
  %10 = load i32, ptr %9, align 4, !tbaa !23
  switch i32 %10, label %23 [
    i32 0, label %11
    i32 1, label %17
  ]

11:                                               ; preds = %6
  %12 = getelementptr inbounds nuw i8, ptr %0, i64 48
  %13 = load ptr, ptr %12, align 8, !tbaa !7
  %14 = getelementptr inbounds nuw i8, ptr %0, i64 8
  %15 = load i32, ptr %14, align 8, !tbaa !36
  %16 = sext i32 %15 to i64
  tail call void @_ZN5faiss26fvec_inner_products_by_idxEPfPKfS2_PKlmmm(ptr noundef %4, ptr noundef %2, ptr noundef %13, ptr noundef %5, i64 noundef %16, i64 noundef %1, i64 noundef %3)
  br label %39

17:                                               ; preds = %6
  %18 = getelementptr inbounds nuw i8, ptr %0, i64 48
  %19 = load ptr, ptr %18, align 8, !tbaa !7
  %20 = getelementptr inbounds nuw i8, ptr %0, i64 8
  %21 = load i32, ptr %20, align 8, !tbaa !36
  %22 = sext i32 %21 to i64
  tail call void @_ZN5faiss17fvec_L2sqr_by_idxEPfPKfS2_PKlmmm(ptr noundef %4, ptr noundef %2, ptr noundef %19, ptr noundef %5, i64 noundef %22, i64 noundef %1, i64 noundef %3)
  br label %39

23:                                               ; preds = %6
  %24 = tail call ptr @__cxa_allocate_exception(i64 40) #21
  call void @llvm.lifetime.start.p0(i64 32, ptr nonnull %7) #21
  call void @llvm.lifetime.start.p0(i64 1, ptr nonnull %8) #21
  invoke void @_ZNSt7__cxx1112basic_stringIcSt11char_traitsIcESaIcEEC2IS3_EEPKcRKS3_(ptr noundef nonnull align 8 dereferenceable(32) %7, ptr noundef nonnull @.str.4, ptr noundef nonnull align 1 dereferenceable(1) %8)
          to label %25 unwind label %_ZNSt7__cxx1112basic_stringIcSt11char_traitsIcESaIcEED2Ev.exit.thread

25:                                               ; preds = %23
  invoke void @_ZN5faiss14FaissExceptionC1ERKNSt7__cxx1112basic_stringIcSt11char_traitsIcESaIcEEEPKcSA_i(ptr noundef nonnull align 8 dereferenceable(40) %24, ptr noundef nonnull align 8 dereferenceable(32) %7, ptr noundef nonnull @__PRETTY_FUNCTION__._ZNK5faiss9IndexFlat23compute_distance_subsetElPKflPfPKl, ptr noundef nonnull @.str.2, i32 noundef 94)
          to label %26 unwind label %28

26:                                               ; preds = %25
  invoke void @__cxa_throw(ptr nonnull %24, ptr nonnull @_ZTIN5faiss14FaissExceptionE, ptr nonnull @_ZN5faiss14FaissExceptionD2Ev) #26
          to label %41 unwind label %28

_ZNSt7__cxx1112basic_stringIcSt11char_traitsIcESaIcEED2Ev.exit.thread: ; preds = %23
  %27 = landingpad { ptr, i32 }
          cleanup
  call void @llvm.lifetime.end.p0(i64 1, ptr nonnull %8) #21
  call void @llvm.lifetime.end.p0(i64 32, ptr nonnull %7) #21
  br label %38

28:                                               ; preds = %26, %25
  %.0 = phi i1 [ false, %26 ], [ true, %25 ]
  %29 = landingpad { ptr, i32 }
          cleanup
  %30 = load ptr, ptr %7, align 8, !tbaa !22
  %31 = getelementptr inbounds nuw i8, ptr %7, i64 16
  %32 = icmp eq ptr %30, %31
  br i1 %32, label %_ZNKSt7__cxx1112basic_stringIcSt11char_traitsIcESaIcEE11_M_is_localEv.exit.thread.i.i, label %_ZNSt7__cxx1112basic_stringIcSt11char_traitsIcESaIcEED2Ev.exit

_ZNKSt7__cxx1112basic_stringIcSt11char_traitsIcESaIcEE11_M_is_localEv.exit.thread.i.i: ; preds = %28
  %33 = getelementptr inbounds nuw i8, ptr %7, i64 8
  %34 = load i64, ptr %33, align 8, !tbaa !18
  %35 = icmp ult i64 %34, 16
  call void @llvm.assume(i1 %35)
  call void @llvm.lifetime.end.p0(i64 1, ptr nonnull %8) #21
  call void @llvm.lifetime.end.p0(i64 32, ptr nonnull %7) #21
  br i1 %.0, label %38, label %40

_ZNSt7__cxx1112basic_stringIcSt11char_traitsIcESaIcEED2Ev.exit: ; preds = %28
  %36 = load i64, ptr %31, align 8, !tbaa !21
  %37 = add i64 %36, 1
  call void @_ZdlPvm(ptr noundef %30, i64 noundef %37) #25
  call void @llvm.lifetime.end.p0(i64 1, ptr nonnull %8) #21
  call void @llvm.lifetime.end.p0(i64 32, ptr nonnull %7) #21
  br i1 %.0, label %38, label %40

38:                                               ; preds = %_ZNKSt7__cxx1112basic_stringIcSt11char_traitsIcESaIcEE11_M_is_localEv.exit.thread.i.i, %_ZNSt7__cxx1112basic_stringIcSt11char_traitsIcESaIcEED2Ev.exit.thread, %_ZNSt7__cxx1112basic_stringIcSt11char_traitsIcESaIcEED2Ev.exit
  %.pn19 = phi { ptr, i32 } [ %27, %_ZNSt7__cxx1112basic_stringIcSt11char_traitsIcESaIcEED2Ev.exit.thread ], [ %29, %_ZNSt7__cxx1112basic_stringIcSt11char_traitsIcESaIcEED2Ev.exit ], [ %29, %_ZNKSt7__cxx1112basic_stringIcSt11char_traitsIcESaIcEE11_M_is_localEv.exit.thread.i.i ]
  call void @__cxa_free_exception(ptr %24) #21
  br label %40

39:                                               ; preds = %17, %11
  ret void

40:                                               ; preds = %_ZNKSt7__cxx1112basic_stringIcSt11char_traitsIcESaIcEE11_M_is_localEv.exit.thread.i.i, %_ZNSt7__cxx1112basic_stringIcSt11char_traitsIcESaIcEED2Ev.exit, %38
  %.pn18 = phi { ptr, i32 } [ %29, %_ZNSt7__cxx1112basic_stringIcSt11char_traitsIcESaIcEED2Ev.exit ], [ %.pn19, %38 ], [ %29, %_ZNKSt7__cxx1112basic_stringIcSt11char_traitsIcESaIcEE11_M_is_localEv.exit.thread.i.i ]
  resume { ptr, i32 } %.pn18

41:                                               ; preds = %26
  unreachable
}